target datalayout = "e-m:e-p270:32:32-p271:32:32-p272:64:64-i64:64-i128:128-f80:128-n8:16:32:64-S128"
target triple = "x86_64-pc-linux-gnu"

%struct._e_guid_t = type { i32, i16, i16, [8 x i8] }
%struct._address = type { i32, i32, ptr, ptr }
%struct._guid_key = type { %struct._e_guid_t, i16 }
%struct._dcerpc_dissector_data = type { ptr, ptr, i8, ptr, ptr, ptr }
%struct._dcerpc_info = type { ptr, i32, i64, i8, i8, i8, i32, i32, i32, i32, i32, i32, i32, i32, ptr, ptr, ptr, ptr, %struct.anon }
%struct.anon = type { i8, ptr, ptr, ptr, i8 }
%struct._dcerpc_call_value = type { %struct._e_guid_t, i16, %struct._e_guid_t, i16, i32, %struct.nstime_t, i32, i32, ptr, ptr, ptr, i32 }
%struct.nstime_t = type { i64, i32 }
%struct._packet_info = type { ptr, ptr, i32, i32, %struct.nstime_t, %struct.nstime_t, %struct.nstime_t, i8, ptr, ptr, ptr, ptr, %struct._address, %struct._address, %struct._address, %struct._address, %struct._address, %struct._address, i32, ptr, i8, [3 x i8], %struct.anon.0, i32, i32, i32, i32, ptr, i8, ptr, ptr, i16, i16, i32, i32, i16, i32, i32, ptr, ptr, ptr, i8, i8, i16, i16, i16, i32, i16, i16, ptr, ptr, ptr, ptr, ptr, i32, i32 }
%struct.anon.0 = type { i8, [3 x i8] }
%struct._proto_node = type { ptr, ptr, ptr, ptr, ptr, ptr, ptr }
%struct.field_info = type { ptr, i32, i32, i32, i32, i32, i32, ptr, ptr, ptr, i32, i32 }

@dcerpc_uuids = global ptr null, align 8
@uuid_dissector_table = internal global ptr null, align 8
@hf_dcerpc_unknown_if_id = internal global i32 0, align 4
@dcerpc_tap = internal global i32 0, align 4
@.str.679 = private unnamed_addr constant [8 x i8] c" %s V%u\00", align 1

; Function Attrs: inlinehint nounwind null_pointer_is_valid sspstrong uwtable
define internal void @proto_item_set_hidden(ptr noundef %0) #12 {
  %2 = alloca ptr, align 8
  store ptr %0, ptr %2, align 8
  %3 = load ptr, ptr %2, align 8
  %4 = icmp ne ptr %3, null
  br i1 %4, label %5, label %24

5:                                                ; preds = %1
  br label %6

6:                                                ; preds = %5
  %7 = load ptr, ptr %2, align 8
  %8 = getelementptr inbounds nuw %struct._proto_node, ptr %7, i32 0, i32 5
  %9 = load ptr, ptr %8, align 8
  %10 = icmp ne ptr %9, null
  br i1 %10, label %11, label %22

11:                                               ; preds = %6
  %12 = load ptr, ptr %2, align 8
  %13 = getelementptr inbounds nuw %struct._proto_node, ptr %12, i32 0, i32 5
  %14 = load ptr, ptr %13, align 8
  %15 = getelementptr inbounds nuw %struct.field_info, ptr %14, i32 0, i32 6
  %16 = load i32, ptr %15, align 4
  %17 = or i32 %16, 1
  %18 = load ptr, ptr %2, align 8
  %19 = getelementptr inbounds nuw %struct._proto_node, ptr %18, i32 0, i32 5
  %20 = load ptr, ptr %19, align 8
  %21 = getelementptr inbounds nuw %struct.field_info, ptr %20, i32 0, i32 6
  store i32 %17, ptr %21, align 4
  br label %22

22:                                               ; preds = %11, %6
  br label %23

23:                                               ; preds = %22
  br label %24

24:                                               ; preds = %23, %1
  ret void
}

; Function Attrs: alwaysinline nounwind
define internal ptr @memcpy.inline(ptr noalias %0, ptr noalias %1, i64 %2) #9 {
  %4 = alloca ptr, align 8
  %5 = alloca ptr, align 8
  %6 = alloca i64, align 8
  store ptr %0, ptr %4, align 8
  store ptr %1, ptr %5, align 8
  store i64 %2, ptr %6, align 8
  %7 = load ptr, ptr %4, align 8
  %8 = load ptr, ptr %5, align 8
  %9 = load i64, ptr %6, align 8
  %10 = load ptr, ptr %4, align 8
  %11 = call i64 @llvm.objectsize.i64.p0(ptr %10, i1 false, i1 true, i1 true)
  %12 = call ptr @__memcpy_chk(ptr noundef %7, ptr noundef %8, i64 noundef %9, i64 noundef %11) #19
  ret ptr %12
}

; Function Attrs: null_pointer_is_valid sspstrong uwtable
define internal i32 @dcerpc_try_handoff(ptr noundef %0, ptr noundef %1, ptr noundef %2, ptr noundef %3, i1 noundef zeroext %4, ptr noundef %5, ptr noundef %6, ptr noundef %7) #0 {
  %9 = alloca i32, align 4
  %10 = alloca ptr, align 8
  %11 = alloca ptr, align 8
  %12 = alloca ptr, align 8
  %13 = alloca ptr, align 8
  %14 = alloca i8, align 1
  %15 = alloca ptr, align 8
  %16 = alloca ptr, align 8
  %17 = alloca ptr, align 8
  %18 = alloca i32, align 4
  %19 = alloca %struct._guid_key, align 4
  %20 = alloca %struct._dcerpc_dissector_data, align 8
  %21 = alloca ptr, align 8
  %22 = alloca i32, align 4
  store ptr %0, ptr %10, align 8
  store ptr %1, ptr %11, align 8
  store ptr %2, ptr %12, align 8
  store volatile ptr %3, ptr %13, align 8
  %23 = zext i1 %4 to i8
  store i8 %23, ptr %14, align 1
  store ptr %5, ptr %15, align 8
  store ptr %6, ptr %16, align 8
  store ptr %7, ptr %17, align 8
  call void @llvm.lifetime.start.p0(i64 4, ptr %18) #19
  store volatile i32 0, ptr %18, align 4
  call void @llvm.lifetime.start.p0(i64 20, ptr %19) #19
  call void @llvm.lifetime.start.p0(i64 48, ptr %20) #19
  call void @llvm.lifetime.start.p0(i64 8, ptr %21) #19
  %24 = getelementptr inbounds nuw %struct._guid_key, ptr %19, i32 0, i32 0
  %25 = load ptr, ptr %16, align 8
  %26 = getelementptr inbounds nuw %struct._dcerpc_info, ptr %25, i32 0, i32 14
  %27 = load ptr, ptr %26, align 8
  %28 = getelementptr inbounds nuw %struct._dcerpc_call_value, ptr %27, i32 0, i32 0
  %29 = call ptr @memcpy.inline(ptr noundef %24, ptr noundef %28, i64 noundef 16) #19
  %30 = load ptr, ptr %16, align 8
  %31 = getelementptr inbounds nuw %struct._dcerpc_info, ptr %30, i32 0, i32 14
  %32 = load ptr, ptr %31, align 8
  %33 = getelementptr inbounds nuw %struct._dcerpc_call_value, ptr %32, i32 0, i32 1
  %34 = load i16, ptr %33, align 8
  %35 = getelementptr inbounds nuw %struct._guid_key, ptr %19, i32 0, i32 1
  store i16 %34, ptr %35, align 4
  %36 = load ptr, ptr @dcerpc_uuids, align 8
  %37 = call ptr @g_hash_table_lookup(ptr noundef %36, ptr noundef %19)
  %38 = getelementptr inbounds nuw %struct._dcerpc_dissector_data, ptr %20, i32 0, i32 0
  store ptr %37, ptr %38, align 8
  %39 = load ptr, ptr %16, align 8
  %40 = getelementptr inbounds nuw %struct._dcerpc_dissector_data, ptr %20, i32 0, i32 1
  store ptr %39, ptr %40, align 8
  %41 = load i8, ptr %14, align 1, !range !11, !noundef !12
  %42 = trunc i8 %41 to i1
  %43 = getelementptr inbounds nuw %struct._dcerpc_dissector_data, ptr %20, i32 0, i32 2
  %44 = zext i1 %42 to i8
  store i8 %44, ptr %43, align 8
  %45 = load ptr, ptr %17, align 8
  %46 = getelementptr inbounds nuw %struct._dcerpc_dissector_data, ptr %20, i32 0, i32 3
  store ptr %45, ptr %46, align 8
  %47 = load ptr, ptr %15, align 8
  %48 = getelementptr inbounds nuw %struct._dcerpc_dissector_data, ptr %20, i32 0, i32 4
  store ptr %47, ptr %48, align 8
  %49 = load ptr, ptr %12, align 8
  %50 = getelementptr inbounds nuw %struct._dcerpc_dissector_data, ptr %20, i32 0, i32 5
  store ptr %49, ptr %50, align 8
  %51 = getelementptr inbounds nuw %struct._dcerpc_dissector_data, ptr %20, i32 0, i32 0
  %52 = load ptr, ptr %51, align 8
  %53 = icmp eq ptr %52, null
  br i1 %53, label %61, label %54

54:                                               ; preds = %8
  %55 = load ptr, ptr @uuid_dissector_table, align 8
  %56 = load volatile ptr, ptr %13, align 8
  %57 = load ptr, ptr %10, align 8
  %58 = load ptr, ptr %11, align 8
  %59 = call i32 @dissector_try_guid_with_data(ptr noundef %55, ptr noundef %19, ptr noundef %56, ptr noundef %57, ptr noundef %58, i1 noundef zeroext false, ptr noundef %20)
  %60 = icmp ne i32 %59, 0
  br i1 %60, label %92, label %61

61:                                               ; preds = %54, %8
  %62 = load ptr, ptr %12, align 8
  %63 = load i32, ptr @hf_dcerpc_unknown_if_id, align 4
  %64 = load volatile ptr, ptr %13, align 8
  %65 = load volatile i32, ptr %18, align 4
  %66 = call ptr @proto_tree_add_boolean(ptr noundef %62, i32 noundef %63, ptr noundef %64, i32 noundef %65, i32 noundef 0, i64 noundef 1)
  store ptr %66, ptr %21, align 8
  %67 = load ptr, ptr %21, align 8
  call void @proto_item_set_hidden(ptr noundef %67)
  %68 = load ptr, ptr %10, align 8
  %69 = getelementptr inbounds nuw %struct._packet_info, ptr %68, i32 0, i32 1
  %70 = load ptr, ptr %69, align 8
  %71 = load ptr, ptr %16, align 8
  %72 = getelementptr inbounds nuw %struct._dcerpc_info, ptr %71, i32 0, i32 14
  %73 = load ptr, ptr %72, align 8
  %74 = getelementptr inbounds nuw %struct._dcerpc_call_value, ptr %73, i32 0, i32 0
  %75 = load ptr, ptr %10, align 8
  %76 = getelementptr inbounds nuw %struct._packet_info, ptr %75, i32 0, i32 51
  %77 = load ptr, ptr %76, align 8
  %78 = call ptr @guids_resolve_guid_to_str(ptr noundef %74, ptr noundef %77)
  %79 = load ptr, ptr %16, align 8
  %80 = getelementptr inbounds nuw %struct._dcerpc_info, ptr %79, i32 0, i32 14
  %81 = load ptr, ptr %80, align 8
  %82 = getelementptr inbounds nuw %struct._dcerpc_call_value, ptr %81, i32 0, i32 1
  %83 = load i16, ptr %82, align 8
  %84 = zext i16 %83 to i32
  call void (ptr, i32, ptr, ...) @col_append_fstr(ptr noundef %70, i32 noundef 25, ptr noundef @.str.679, ptr noundef %78, i32 noundef %84)
  %85 = load ptr, ptr %10, align 8
  %86 = load volatile ptr, ptr %13, align 8
  %87 = load ptr, ptr %12, align 8
  %88 = load ptr, ptr %17, align 8
  %89 = load i8, ptr %14, align 1, !range !11, !noundef !12
  %90 = trunc i8 %89 to i1
  %91 = xor i1 %90, true
  call void @show_stub_data(ptr noundef %85, ptr noundef %86, i32 noundef 0, ptr noundef %87, ptr noundef %88, i1 noundef zeroext %91)
  store i32 -1, ptr %9, align 4
  store i32 1, ptr %22, align 4
  br label %96

92:                                               ; preds = %54
  %93 = load i32, ptr @dcerpc_tap, align 4
  %94 = load ptr, ptr %10, align 8
  %95 = load ptr, ptr %16, align 8
  call void @tap_queue_packet(i32 noundef %93, ptr noundef %94, ptr noundef %95)
  store i32 0, ptr %9, align 4
  store i32 1, ptr %22, align 4
  br label %96

96:                                               ; preds = %92, %61
  call void @llvm.lifetime.end.p0(i64 8, ptr %21) #19
  call void @llvm.lifetime.end.p0(i64 48, ptr %20) #19
  call void @llvm.lifetime.end.p0(i64 20, ptr %19) #19
  call void @llvm.lifetime.end.p0(i64 4, ptr %18) #19
  %97 = load i32, ptr %9, align 4
  ret i32 %97
}