; Function Attrs: null_pointer_is_valid sspstrong uwtable
define internal fastcc void @dcerpc_try_handoff(ptr noundef %0, ptr noundef %1, ptr noundef %2, ptr noundef %3, i1 noundef zeroext %4, ptr noundef %5, ptr noundef %6, ptr noundef %7) unnamed_addr #0 {
  %9 = alloca ptr, align 8
  %10 = alloca i32, align 4
  %11 = alloca %struct._guid_key, align 4
  %12 = alloca %struct._dcerpc_dissector_data, align 8
  store volatile ptr %3, ptr %9, align 8
  %13 = zext i1 %4 to i8
  call void @llvm.lifetime.start.p0(i64 4, ptr nonnull %10)
  store volatile i32 0, ptr %10, align 4
  call void @llvm.lifetime.start.p0(i64 20, ptr nonnull %11) #19
  call void @llvm.lifetime.start.p0(i64 48, ptr nonnull %12) #19
  %14 = getelementptr inbounds nuw i8, ptr %6, i64 64
  %15 = load ptr, ptr %14, align 8
  call void @llvm.memcpy.p0.p0.i64(ptr noundef nonnull align 4 dereferenceable(16) %11, ptr noundef align 1 dereferenceable(16) %15, i64 noundef 16, i1 noundef false) #19
  %16 = getelementptr inbounds nuw i8, ptr %15, i64 16
  %17 = load i16, ptr %16, align 8
  %18 = getelementptr inbounds nuw i8, ptr %11, i64 16
  store i16 %17, ptr %18, align 4
  %19 = load ptr, ptr @dcerpc_uuids, align 8
  %20 = call ptr @g_hash_table_lookup(ptr noundef %19, ptr noundef nonnull %11)
  store ptr %20, ptr %12, align 8
  %21 = getelementptr inbounds nuw i8, ptr %12, i64 8
  store ptr %6, ptr %21, align 8
  %22 = getelementptr inbounds nuw i8, ptr %12, i64 16
  store i8 %13, ptr %22, align 8
  %23 = getelementptr inbounds nuw i8, ptr %12, i64 24
  store ptr %7, ptr %23, align 8
  %24 = getelementptr inbounds nuw i8, ptr %12, i64 32
  store ptr %5, ptr %24, align 8
  %25 = getelementptr inbounds nuw i8, ptr %12, i64 40
  store ptr %2, ptr %25, align 8
  %26 = icmp eq ptr %20, null
  br i1 %26, label %30, label %27

27:                                               ; preds = %8
  %28 = load ptr, ptr @uuid_dissector_table, align 8
  %.0..0..0..0.12 = load volatile ptr, ptr %9, align 8
  %29 = call i32 @dissector_try_guid_with_data(ptr noundef %28, ptr noundef nonnull %11, ptr noundef %.0..0..0..0.12, ptr noundef %0, ptr noundef %1, i1 noundef zeroext false, ptr noundef nonnull %12)
  %.not = icmp eq i32 %29, 0
  br i1 %.not, label %30, label %51

30:                                               ; preds = %27, %8
  %31 = load i32, ptr @hf_dcerpc_unknown_if_id, align 4
  %.0..0..0..0.13 = load volatile ptr, ptr %9, align 8
  %.0..0..0..0.1 = load volatile i32, ptr %10, align 4
  %32 = call ptr @proto_tree_add_boolean(ptr noundef %2, i32 noundef %31, ptr noundef %.0..0..0..0.13, i32 noundef %.0..0..0..0.1, i32 noundef 0, i64 noundef 1)
  %.not.i = icmp eq ptr %32, null
  br i1 %.not.i, label %proto_item_set_hidden.exit, label %33

33:                                               ; preds = %30
  %34 = getelementptr inbounds nuw i8, ptr %32, i64 40
  %35 = load ptr, ptr %34, align 8
  %.not5.i = icmp eq ptr %35, null
  br i1 %.not5.i, label %proto_item_set_hidden.exit, label %36

36:                                               ; preds = %33
  %37 = getelementptr inbounds nuw i8, ptr %35, i64 28
  %38 = load i32, ptr %37, align 4
  %39 = or i32 %38, 1
  store i32 %39, ptr %37, align 4
  br label %proto_item_set_hidden.exit

proto_item_set_hidden.exit:                       ; preds = %30, %33, %36
  %40 = getelementptr inbounds nuw i8, ptr %0, i64 8
  %41 = load ptr, ptr %40, align 8
  %42 = load ptr, ptr %14, align 8
  %43 = getelementptr inbounds nuw i8, ptr %0, i64 408
  %44 = load ptr, ptr %43, align 8
  %45 = call ptr @guids_resolve_guid_to_str(ptr noundef %42, ptr noundef %44)
  %46 = load ptr, ptr %14, align 8
  %47 = getelementptr inbounds nuw i8, ptr %46, i64 16
  %48 = load i16, ptr %47, align 8
  %49 = zext i16 %48 to i32
  call void (ptr, i32, ptr, ...) @col_append_fstr(ptr noundef %41, i32 noundef 25, ptr noundef nonnull @.str.679, ptr noundef %45, i32 noundef %49)
  %.0..0..0..0.14 = load volatile ptr, ptr %9, align 8
  %50 = xor i1 %4, true
  call fastcc void @show_stub_data(ptr noundef %0, ptr noundef %.0..0..0..0.14, i32 noundef 0, ptr noundef %2, ptr noundef %7, i1 noundef zeroext %50)
  br label %53

51:                                               ; preds = %27
  %52 = load i32, ptr @dcerpc_tap, align 4
  call void @tap_queue_packet(i32 noundef %52, ptr noundef %0, ptr noundef %6)
  br label %53

53:                                               ; preds = %51, %proto_item_set_hidden.exit
  call void @llvm.lifetime.end.p0(i64 48, ptr nonnull %12) #19
  call void @llvm.lifetime.end.p0(i64 20, ptr nonnull %11) #19
  call void @llvm.lifetime.end.p0(i64 4, ptr nonnull %10)
  ret void
}